; Function Attrs: nofree norecurse nosync nounwind memory(read, argmem: readwrite, inaccessiblemem: none) uwtable
define internal void @ff_put_dirac_pixels32_bilinear_c(ptr noundef writeonly captures(none) %0, ptr noundef readonly captures(none) %1, i32 noundef %2, i32 noundef %3) #3 {
  %5 = getelementptr inbounds nuw i8, ptr %1, i64 32
  %6 = load ptr, ptr %5, align 8, !tbaa !51
  %.not38 = icmp eq i32 %3, 0
  br i1 %.not38, label %._crit_edge, label %.preheader.lr.ph

.preheader.lr.ph:                                 ; preds = %4
  %7 = getelementptr inbounds nuw i8, ptr %1, i64 24
  %8 = load ptr, ptr %7, align 8, !tbaa !51
  %9 = getelementptr inbounds nuw i8, ptr %1, i64 16
  %10 = load ptr, ptr %9, align 8, !tbaa !51
  %11 = getelementptr inbounds nuw i8, ptr %1, i64 8
  %12 = load ptr, ptr %11, align 8, !tbaa !51
  %13 = load ptr, ptr %1, align 8, !tbaa !51
  %14 = getelementptr inbounds nuw i8, ptr %6, i64 1
  %15 = getelementptr inbounds nuw i8, ptr %6, i64 2
  %16 = getelementptr inbounds nuw i8, ptr %6, i64 3
  %17 = sext i32 %2 to i64
  br label %.preheader

.preheader:                                       ; preds = %.preheader.lr.ph, %50
  %.in = phi i32 [ %3, %.preheader.lr.ph ], [ %51, %50 ]
  %.043 = phi ptr [ %0, %.preheader.lr.ph ], [ %52, %50 ]
  %.03142 = phi ptr [ %8, %.preheader.lr.ph ], [ %56, %50 ]
  %.03241 = phi ptr [ %10, %.preheader.lr.ph ], [ %55, %50 ]
  %.03340 = phi ptr [ %12, %.preheader.lr.ph ], [ %54, %50 ]
  %.03439 = phi ptr [ %13, %.preheader.lr.ph ], [ %53, %50 ]
  br label %18

18:                                               ; preds = %.preheader, %18
  %indvars.iv = phi i64 [ 0, %.preheader ], [ %indvars.iv.next, %18 ]
  %19 = getelementptr inbounds nuw i8, ptr %.03439, i64 %indvars.iv
  %20 = load i8, ptr %19, align 1, !tbaa !11
  %21 = zext i8 %20 to i16
  %22 = load i8, ptr %6, align 1, !tbaa !11
  %23 = zext i8 %22 to i16
  %24 = mul nuw i16 %23, %21
  %25 = getelementptr inbounds nuw i8, ptr %.03340, i64 %indvars.iv
  %26 = load i8, ptr %25, align 1, !tbaa !11
  %27 = zext i8 %26 to i16
  %28 = load i8, ptr %14, align 1, !tbaa !11
  %29 = zext i8 %28 to i16
  %30 = mul nuw i16 %29, %27
  %31 = getelementptr inbounds nuw i8, ptr %.03241, i64 %indvars.iv
  %32 = load i8, ptr %31, align 1, !tbaa !11
  %33 = zext i8 %32 to i16
  %34 = load i8, ptr %15, align 1, !tbaa !11
  %35 = zext i8 %34 to i16
  %36 = mul nuw i16 %35, %33
  %37 = getelementptr inbounds nuw i8, ptr %.03142, i64 %indvars.iv
  %38 = load i8, ptr %37, align 1, !tbaa !11
  %39 = zext i8 %38 to i16
  %40 = load i8, ptr %16, align 1, !tbaa !11
  %41 = zext i8 %40 to i16
  %42 = mul nuw i16 %41, %39
  %43 = add nuw i16 %24, 8
  %44 = add i16 %43, %30
  %45 = add i16 %44, %36
  %46 = add i16 %45, %42
  %47 = lshr i16 %46, 4
  %48 = trunc i16 %47 to i8
  %49 = getelementptr inbounds nuw i8, ptr %.043, i64 %indvars.iv
  store i8 %48, ptr %49, align 1, !tbaa !11
  %indvars.iv.next = add nuw nsw i64 %indvars.iv, 1
  %exitcond.not = icmp eq i64 %indvars.iv.next, 32
  br i1 %exitcond.not, label %50, label %18, !llvm.loop !57

50:                                               ; preds = %18
  %51 = add nsw i32 %.in, -1
  %52 = getelementptr inbounds i8, ptr %.043, i64 %17
  %53 = getelementptr inbounds i8, ptr %.03439, i64 %17
  %54 = getelementptr inbounds i8, ptr %.03340, i64 %17
  %55 = getelementptr inbounds i8, ptr %.03241, i64 %17
  %56 = getelementptr inbounds i8, ptr %.03142, i64 %17
  %.not = icmp eq i32 %51, 0
  br i1 %.not, label %._crit_edge, label %.preheader, !llvm.loop !58

._crit_edge:                                      ; preds = %50, %4
  ret void
}